; Function Attrs: nounwind uwtable
define ptr @l_Lean_Environment_findConstVal_x3f___lambda__1(ptr noundef %0, ptr noundef %1, i8 noundef zeroext %2, ptr readnone captures(none) %3) local_unnamed_addr #1 {
  %5 = tail call ptr @l___private_Lean_Environment_0__Lean_Environment_findAsyncCore_x3f(ptr noundef %0, ptr noundef %1, i8 noundef zeroext %2)
  %6 = ptrtoint ptr %5 to i64
  %7 = and i64 %6, 1
  %.not.i19 = icmp eq i64 %7, 0
  br i1 %.not.i19, label %11, label %8

8:                                                ; preds = %4
  %9 = lshr i64 %6, 1
  %10 = trunc i64 %9 to i32
  br label %lean_obj_tag.exit

11:                                               ; preds = %4
  %12 = getelementptr i8, ptr %5, i64 4
  %.val.i = load i32, ptr %12, align 4
  %13 = lshr i32 %.val.i, 24
  br label %lean_obj_tag.exit

lean_obj_tag.exit:                                ; preds = %8, %11
  %.0.i = phi i32 [ %10, %8 ], [ %13, %11 ]
  %14 = icmp eq i32 %.0.i, 0
  br i1 %14, label %43, label %15

15:                                               ; preds = %lean_obj_tag.exit
  %.val = load i32, ptr %5, align 4, !tbaa !4
  %16 = icmp eq i32 %.val, 1
  %17 = getelementptr inbounds nuw i8, ptr %5, i64 8
  %18 = load ptr, ptr %17, align 8, !tbaa !9
  br i1 %16, label %19, label %21

19:                                               ; preds = %15
  %20 = tail call ptr @l_Lean_AsyncConstantInfo_toConstantVal(ptr noundef %18)
  store ptr %20, ptr %17, align 8, !tbaa !9
  br label %43

21:                                               ; preds = %15
  %22 = ptrtoint ptr %18 to i64
  %23 = and i64 %22, 1
  %.not = icmp eq i64 %23, 0
  br i1 %.not, label %24, label %lean_inc.exit

24:                                               ; preds = %21
  %.val.i20 = load i32, ptr %18, align 4, !tbaa !4
  %25 = icmp sgt i32 %.val.i20, 0
  br i1 %25, label %26, label %28, !prof !11

26:                                               ; preds = %24
  %27 = add nuw i32 %.val.i20, 1
  store i32 %27, ptr %18, align 4, !tbaa !4
  br label %lean_inc.exit

28:                                               ; preds = %24
  %.not.i21 = icmp eq i32 %.val.i20, 0
  br i1 %.not.i21, label %lean_inc.exit, label %29

29:                                               ; preds = %28
  tail call void @lean_inc_ref_cold(ptr noundef nonnull %18) #10
  br label %lean_inc.exit

lean_inc.exit:                                    ; preds = %29, %28, %26, %21
  br i1 %.not.i19, label %30, label %lean_dec.exit

30:                                               ; preds = %lean_inc.exit
  %31 = load i32, ptr %5, align 4, !tbaa !4
  %32 = icmp sgt i32 %31, 1
  br i1 %32, label %33, label %35, !prof !11

33:                                               ; preds = %30
  %34 = add nsw i32 %31, -1
  store i32 %34, ptr %5, align 4, !tbaa !4
  br label %lean_dec.exit

35:                                               ; preds = %30
  %.not.i = icmp eq i32 %31, 0
  br i1 %.not.i, label %lean_dec.exit, label %36

36:                                               ; preds = %35
  tail call void @lean_dec_ref_cold(ptr noundef nonnull %5) #10
  br label %lean_dec.exit

lean_dec.exit:                                    ; preds = %36, %35, %33, %lean_inc.exit
  %37 = tail call ptr @l_Lean_AsyncConstantInfo_toConstantVal(ptr noundef %18)
  tail call void @lean_inc_heartbeat() #10
  %38 = tail call noalias ptr @mi_malloc_small(i64 noundef 16) #10
  %39 = icmp eq ptr %38, null
  br i1 %39, label %40, label %lean_alloc_ctor.exit

40:                                               ; preds = %lean_dec.exit
  tail call void @lean_internal_panic_out_of_memory() #11
  unreachable

lean_alloc_ctor.exit:                             ; preds = %lean_dec.exit
  %41 = getelementptr inbounds nuw i8, ptr %38, i64 4
  store i32 1, ptr %38, align 4, !tbaa !4
  store i32 16842768, ptr %41, align 4
  %42 = getelementptr inbounds nuw i8, ptr %38, i64 8
  store ptr %37, ptr %42, align 8, !tbaa !9
  br label %43

43:                                               ; preds = %lean_obj_tag.exit, %19, %lean_alloc_ctor.exit
  %.0 = phi ptr [ %5, %19 ], [ %38, %lean_alloc_ctor.exit ], [ inttoptr (i64 1 to ptr), %lean_obj_tag.exit ]
  ret ptr %.0
}